target datalayout = "e-m:e-p270:32:32-p271:32:32-p272:64:64-i64:64-i128:128-f80:128-n8:16:32:64-S128"
target triple = "x86_64-pc-linux-gnu"

%struct.rocksdb_writebatch_wi_t = type { ptr }

; Function Attrs: mustprogress uwtable
define i32 @rocksdb_writebatch_wi_count(ptr noundef %0) #0 {
  %2 = alloca ptr, align 8
  store ptr %0, ptr %2, align 8, !tbaa !442
  %3 = load ptr, ptr %2, align 8, !tbaa !442
  %4 = getelementptr inbounds nuw %struct.rocksdb_writebatch_wi_t, ptr %3, i32 0, i32 0
  %5 = load ptr, ptr %4, align 8, !tbaa !444
  %6 = load ptr, ptr %5, align 8, !tbaa !129
  %7 = getelementptr inbounds ptr, ptr %6, i64 32
  %8 = load ptr, ptr %7, align 8
  %9 = call noundef ptr %8(ptr noundef nonnull align 8 dereferenceable(16) %5)
  %10 = call noundef i32 @_ZNK7rocksdb10WriteBatch5CountEv(ptr noundef nonnull align 8 dereferenceable(160) %9)
  ret i32 %10
}