; Function Attrs: mustprogress uwtable
define noundef i32 @rocksdb_writebatch_wi_count(ptr noundef readonly captures(none) %0) local_unnamed_addr #0 {
  %2 = load ptr, ptr %0, align 8, !tbaa !410
  %3 = load ptr, ptr %2, align 8, !tbaa !23
  %4 = getelementptr inbounds nuw i8, ptr %3, i64 256
  %5 = load ptr, ptr %4, align 8
  %6 = tail call noundef ptr %5(ptr noundef nonnull align 8 dereferenceable(16) %2)
  %7 = tail call noundef i32 @_ZNK7rocksdb10WriteBatch5CountEv(ptr noundef nonnull align 8 dereferenceable(160) %6)
  ret i32 %7
}